
a.out:     file format elf32-littlearm

Contents of section .interp:
 8134 2f6c6962 2f6c642d 6c696e75 782d6172  /lib/ld-linux-ar
 8144 6d68662e 736f2e33 00                 mhf.so.3.       
Contents of section .note.ABI-tag:
 8150 04000000 10000000 01000000 474e5500  ............GNU.
 8160 00000000 02000000 06000000 1a000000  ................
Contents of section .note.gnu.build-id:
 8170 04000000 14000000 03000000 474e5500  ............GNU.
 8180 ec3f47f6 ac887c2d abb24c47 9ffe62b6  .?G...|-..LG..b.
 8190 e0769dec                             .v..            
Contents of section .hash:
 8194 03000000 06000000 01000000 05000000  ................
 81a4 03000000 00000000 04000000 00000000  ................
 81b4 02000000 00000000 00000000           ............    
Contents of section .gnu.hash:
 81c0 03000000 02000000 01000000 05000000  ................
 81d0 00580321 00000000 02000000 04000000  .X.!............
 81e0 b82b6b15 7ded110f 9075820d 2f4e3df6  .+k.}....u../N=.
Contents of section .dynsym:
 81f0 00000000 00000000 00000000 00000000  ................
 8200 31000000 00000000 00000000 20000000  1........... ...
 8210 11000000 00000000 00000000 12000000  ................
 8220 0b000000 00000000 00000000 12000000  ................
 8230 18000000 00000000 00000000 12000000  ................
 8240 1f000000 00000000 00000000 12000000  ................
Contents of section .dynstr:
 8250 006c6962 632e736f 2e360061 626f7274  .libc.so.6.abort
 8260 00707269 6e746600 6d656d63 7079005f  .printf.memcpy._
 8270 5f6c6962 635f7374 6172745f 6d61696e  _libc_start_main
 8280 005f5f67 6d6f6e5f 73746172 745f5f00  .__gmon_start__.
 8290 474c4942 435f322e 3400               GLIBC_2.4.      
Contents of section .gnu.version:
 829a 00000000 02000200 02000200           ............    
Contents of section .gnu.version_r:
 82a8 01000100 01000000 10000000 00000000  ................
 82b8 1469690d 00000200 40000000 00000000  .ii.....@.......
Contents of section .rel.dyn:
 82c8 f0070100 15010000                    ........        
Contents of section .rel.plt:
 82d0 dc070100 16020000 e0070100 16040000  ................
 82e0 e4070100 16050000 e8070100 16010000  ................
 82f0 ec070100 16030000                    ........        
Contents of section .init:
 82f8 08402de9 230000eb 0880bde8           .@-.#.......    
Contents of section .plt:
 8304 04e02de5 04e09fe5 0ee08fe0 08f0bee5  ..-.............
 8314 bc840000 00c68fe2 08ca8ce2 bcf4bce5  ................
 8324 00c68fe2 08ca8ce2 b4f4bce5 00c68fe2  ................
 8334 08ca8ce2 acf4bce5 00c68fe2 08ca8ce2  ................
 8344 a4f4bce5 00c68fe2 08ca8ce2 9cf4bce5  ................
Contents of section .text:
 8354 00b0a0e3 00e0a0e3 04109de4 0d20a0e1  ............. ..
 8364 04202de5 04002de5 10c09fe5 04c02de5  . -...-.......-.
 8374 0c009fe5 0c309fe5 ebffffeb f0ffffeb  .....0..........
 8384 10850000 00840000 b0840000 14309fe5  .............0..
 8394 14209fe5 03308fe0 023093e7 000053e3  . ...0...0....S.
 83a4 1eff2f01 e3ffffea 30840000 20000000  ../.....0... ...
 83b4 10309fe5 0020d3e5 000052e3 0120a003  .0... ....R.. ..
 83c4 0020c305 1eff2fe1 90090100 20009fe5  . ..../..... ...
 83d4 08402de9 003090e5 000053e3 0880bd08  .@-..0....S.....
 83e4 10309fe5 000053e3 0880bd08 33ff2fe1  .0....S.....3./.
 83f4 0880bde8 dc060100 00000000 00482de9  .............H-.
 8404 04b08de2 6adf4de2 a8010be5 ac110be5  ....j.M.........
 8414 88309fe5 1a1e4be2 0320a0e1 653fa0e3  .0....K.. ..e?..
 8424 0100a0e1 0210a0e1 0320a0e1 bbffffeb  ......... ......
 8434 6530a0e3 0c300be5 0030a0e3 08300be5  e0...0...0...0..
 8444 0e0000ea 58209fe5 08101be5 54309fe5  ....X ......T0..
 8454 0111a0e1 04004be2 011080e0 033081e0  ......K......0..
 8464 003093e5 0200a0e1 08101be5 0320a0e1  .0........... ..
 8474 a7ffffeb 08301be5 013083e2 08300be5  .....0...0...0..
 8484 08201be5 0c301be5 030052e1 ecffffba  . ...0....R.....
 8494 0030a0e3 0300a0e1 04d04be2 0088bde8  .0........K.....
 84a4 34850000 20850000 64feffff f8452de9  4... ...d....E-.
 84b4 0060a0e1 48509fe5 48a09fe5 05508fe0  .`..HP..H....P..
 84c4 0aa08fe0 0aa065e0 0170a0e1 0280a0e1  ......e..p......
 84d4 87ffffeb 4aa1b0e1 f885bd08 0040a0e3  ....J........@..
 84e4 043095e4 0600a0e1 0710a0e1 0820a0e1  .0........... ..
 84f4 014084e2 33ff2fe1 0a0054e1 f7ffff1a  .@..3./...T.....
 8504 f885bde8 0c820000 0c820000 1eff2fe1  ............../.
Contents of section .fini:
 8514 08402de9 0880bde8                    .@-.....        
Contents of section .rodata:
 851c 01000200 77696474 68735b25 645d203d  ....widths[%d] =
 852c 2025640a 00000000 01000000 01000000   %d.............
 853c 01000000 01000000 01000000 01000000  ................
 854c 01000000 01000000 01000000 01000000  ................
 855c 02000000 02000000 02000000 02000000  ................
 856c 02000000 02000000 02000000 02000000  ................
 857c 02000000 02000000 02000000 02000000  ................
 858c 02000000 02000000 02000000 02000000  ................
 859c 02000000 02000000 02000000 02000000  ................
 85ac 02000000 02000000 02000000 02000000  ................
 85bc 02000000 02000000 02000000 02000000  ................
 85cc 02000000 02000000 02000000 02000000  ................
 85dc 02000000 02000000 02000000 02000000  ................
 85ec 02000000 02000000 02000000 02000000  ................
 85fc 02000000 02000000 02000000 02000000  ................
 860c 02000000 02000000 02000000 02000000  ................
 861c 02000000 02000000 02000000 02000000  ................
 862c 02000000 02000000 02000000 02000000  ................
 863c 02000000 02000000 02000000 02000000  ................
 864c 02000000 02000000 02000000 02000000  ................
 865c 02000000 02000000 02000000 02000000  ................
 866c 02000000 02000000 02000000 02000000  ................
 867c 02000000 02000000 02000000 02000000  ................
 868c 02000000 02000000 02000000 02000000  ................
 869c 02000000 02000000 02000000 02000000  ................
 86ac 02000000 02000000 02000000 02000000  ................
 86bc 02000000 02000000 03000000           ............    
Contents of section .ARM.exidx:
 86c8 8cfcff7f 01000000                    ........        
Contents of section .eh_frame:
 86d0 00000000                             ....            
Contents of section .init_array:
 106d4 d0830000                             ....            
Contents of section .fini_array:
 106d8 b4830000                             ....            
Contents of section .jcr:
 106dc 00000000                             ....            
Contents of section .dynamic:
 106e0 01000000 01000000 0c000000 f8820000  ................
 106f0 0d000000 14850000 19000000 d4060100  ................
 10700 1b000000 04000000 1a000000 d8060100  ................
 10710 1c000000 04000000 04000000 94810000  ................
 10720 f5feff6f c0810000 05000000 50820000  ...o........P...
 10730 06000000 f0810000 0a000000 4a000000  ............J...
 10740 0b000000 10000000 15000000 00000000  ................
 10750 03000000 d0070100 02000000 28000000  ............(...
 10760 14000000 11000000 17000000 d0820000  ................
 10770 11000000 c8820000 12000000 08000000  ................
 10780 13000000 08000000 feffff6f a8820000  ...........o....
 10790 ffffff6f 01000000 f0ffff6f 9a820000  ...o.......o....
 107a0 00000000 00000000 00000000 00000000  ................
 107b0 00000000 00000000 00000000 00000000  ................
 107c0 00000000 00000000 00000000 00000000  ................
Contents of section .got:
 107d0 e0060100 00000000 00000000 04830000  ................
 107e0 04830000 04830000 04830000 04830000  ................
 107f0 00000000                             ....            
Contents of section .data:
 107f4 00000000 00000000 02000000 02000000  ................
 10804 02000000 02000000 02000000 02000000  ................
 10814 02000000 02000000 02000000 02000000  ................
 10824 03000000 03000000 03000000 03000000  ................
 10834 03000000 03000000 03000000 03000000  ................
 10844 03000000 03000000 03000000 03000000  ................
 10854 03000000 03000000 03000000 03000000  ................
 10864 03000000 03000000 03000000 03000000  ................
 10874 03000000 03000000 03000000 03000000  ................
 10884 03000000 03000000 03000000 03000000  ................
 10894 03000000 03000000 03000000 03000000  ................
 108a4 03000000 03000000 03000000 03000000  ................
 108b4 03000000 03000000 03000000 03000000  ................
 108c4 03000000 03000000 03000000 03000000  ................
 108d4 03000000 03000000 03000000 03000000  ................
 108e4 03000000 03000000 03000000 03000000  ................
 108f4 03000000 03000000 03000000 03000000  ................
 10904 03000000 03000000 03000000 03000000  ................
 10914 03000000 03000000 03000000 03000000  ................
 10924 03000000 03000000 03000000 03000000  ................
 10934 03000000 03000000 03000000 03000000  ................
 10944 03000000 03000000 03000000 03000000  ................
 10954 03000000 03000000 03000000 03000000  ................
 10964 03000000 03000000 03000000 03000000  ................
 10974 03000000 03000000 03000000 03000000  ................
 10984 03000000 03000000 04000000           ............    
Contents of section .comment:
 0000 4743433a 20284465 6269616e 20342e36  GCC: (Debian 4.6
 0010 2e332d31 342b7270 69312920 342e362e  .3-14+rpi1) 4.6.
 0020 3300                                 3.              
Contents of section .ARM.attributes:
 0000 412e0000 00616561 62690001 24000000  A....aeabi..$...
 0010 05360006 06080109 010a0212 04140115  .6..............
 0020 01170318 0119011a 021b031c 012c01    .............,. 
Contents of section .debug_aranges:
 0000 1c000000 02000000 00000400 00000000  ................
 0010 00840000 b0000000 00000000 00000000  ................
Contents of section .debug_info:
 0000 02010000 02000000 00000401 5e000000  ............^...
 0010 018e0000 001c0000 00008400 00b08400  ................
 0020 00000000 00020407 3e000000 0201084b  ........>......K
 0030 00000002 02076f00 00000204 07390000  ......o......9..
 0040 00020106 4d000000 020205aa 00000003  ....M...........
 0050 0405696e 74000208 05000000 00020807  ..int...........
 0060 34000000 02040505 00000004 04710000  4............q..
 0070 00020108 54000000 05015900 00000105  ....T.....Y.....
 0080 014f0000 00008400 00b08400 00000000  .O..............
 0090 00dd0000 00066a00 00000105 4f000000  ......j.....O...
 00a0 0391d47c 06b40000 000105dd 00000003  ...|............
 00b0 91d07c07 87000000 0107e300 00000391  ..|.............
 00c0 dc7c0782 00000001 084f0000 00029170  .|.......O.....p
 00d0 08690001 094f0000 00029174 0004046b  .i...O.....t...k
 00e0 00000009 4f000000 f3000000 0a250000  ....O........%..
 00f0 0064000b 0e000000 0103e300 00000105  .d..............
 0100 03fc0701 0000                        ......          
Contents of section .debug_abbrev:
 0000 01110125 0e130b03 0e1b0e11 01120110  ...%............
 0010 06000002 24000b0b 3e0b030e 00000324  ....$...>......$
 0020 000b0b3e 0b030800 00040f00 0b0b4913  ...>..........I.
 0030 0000052e 013f0c03 0e3a0b3b 0b270c49  .....?...:.;.'.I
 0040 13110112 01400601 13000006 0500030e  .....@..........
 0050 3a0b3b0b 4913020a 00000734 00030e3a  :.;.I......4...:
 0060 0b3b0b49 13020a00 00083400 03083a0b  .;.I......4...:.
 0070 3b0b4913 020a0000 09010149 13011300  ;.I........I....
 0080 000a2100 49132f0b 00000b34 00030e3a  ..!.I./....4...:
 0090 0b3b0b49 133f0c02 0a000000           .;.I.?......    
Contents of section .debug_line:
 0000 5c000000 02003200 00000201 fb0e0d00  \.....2.........
 0010 01010101 00000001 00000100 745f6465  ............t_de
 0020 7369676e 61746564 5f696e69 7469616c  signated_initial
 0030 697a6572 732e6300 00000000 00050200  izers.c.........
 0040 84000017 9ff34d00 02040267 00020402  ......M....g....
 0050 08730002 04010666 06842f02 0c000101  .s.....f../.....
Contents of section .debug_frame:
 0000 0c000000 ffffffff 0100027c 0e0c0d00  ...........|....
 0010 18000000 00000000 00840000 b0000000  ................
 0020 420e088e 018b0242 0c0b0400           B......B....    
Contents of section .debug_str:
 0000 6c6f6e67 206c6f6e 6720696e 74007769  long long int.wi
 0010 64746873 5f676c6f 62616c00 2f686f6d  dths_global./hom
 0020 652f7069 2f746d70 2f635f6c 616e6775  e/pi/tmp/c_langu
 0030 61676500 6c6f6e67 206c6f6e 6720756e  age.long long un
 0040 7369676e 65642069 6e740075 6e736967  signed int.unsig
 0050 6e656420 63686172 006d6169 6e00474e  ned char.main.GN
 0060 55204320 342e362e 33006172 67630073  U C 4.6.3.argc.s
 0070 686f7274 20756e73 69676e65 6420696e  hort unsigned in
 0080 74007369 7a650077 69647468 7300745f  t.size.widths.t_
 0090 64657369 676e6174 65645f69 6e697469  designated_initi
 00a0 616c697a 6572732e 63007368 6f727420  alizers.c.short 
 00b0 696e7400 61726776 00                 int.argv.       
Contents of section .debug_loc:
 0000 00000000 04000000 02007d00 04000000  ..........}.....
 0010 08000000 02007d08 08000000 b0000000  ......}.........
 0020 02007b04 00000000 00000000           ..{.........    

Disassembly of section .init:

000082f8 <_init>:
    82f8:	e92d4008 	push	{r3, lr}
    82fc:	eb000023 	bl	8390 <call_gmon_start>
    8300:	e8bd8008 	pop	{r3, pc}

Disassembly of section .plt:

00008304 <printf@plt-0x14>:
    8304:	e52de004 	push	{lr}		; (str lr, [sp, #-4]!)
    8308:	e59fe004 	ldr	lr, [pc, #4]	; 8314 <_init+0x1c>
    830c:	e08fe00e 	add	lr, pc, lr
    8310:	e5bef008 	ldr	pc, [lr, #8]!
    8314:	000084bc 			; <UNDEFINED> instruction: 0x000084bc

00008318 <printf@plt>:
    8318:	e28fc600 	add	ip, pc, #0, 12
    831c:	e28cca08 	add	ip, ip, #8, 20	; 0x8000
    8320:	e5bcf4bc 	ldr	pc, [ip, #1212]!	; 0x4bc

00008324 <memcpy@plt>:
    8324:	e28fc600 	add	ip, pc, #0, 12
    8328:	e28cca08 	add	ip, ip, #8, 20	; 0x8000
    832c:	e5bcf4b4 	ldr	pc, [ip, #1204]!	; 0x4b4

00008330 <__libc_start_main@plt>:
    8330:	e28fc600 	add	ip, pc, #0, 12
    8334:	e28cca08 	add	ip, ip, #8, 20	; 0x8000
    8338:	e5bcf4ac 	ldr	pc, [ip, #1196]!	; 0x4ac

0000833c <__gmon_start__@plt>:
    833c:	e28fc600 	add	ip, pc, #0, 12
    8340:	e28cca08 	add	ip, ip, #8, 20	; 0x8000
    8344:	e5bcf4a4 	ldr	pc, [ip, #1188]!	; 0x4a4

00008348 <abort@plt>:
    8348:	e28fc600 	add	ip, pc, #0, 12
    834c:	e28cca08 	add	ip, ip, #8, 20	; 0x8000
    8350:	e5bcf49c 	ldr	pc, [ip, #1180]!	; 0x49c

Disassembly of section .text:

00008354 <_start>:
    8354:	e3a0b000 	mov	fp, #0
    8358:	e3a0e000 	mov	lr, #0
    835c:	e49d1004 	pop	{r1}		; (ldr r1, [sp], #4)
    8360:	e1a0200d 	mov	r2, sp
    8364:	e52d2004 	push	{r2}		; (str r2, [sp, #-4]!)
    8368:	e52d0004 	push	{r0}		; (str r0, [sp, #-4]!)
    836c:	e59fc010 	ldr	ip, [pc, #16]	; 8384 <_start+0x30>
    8370:	e52dc004 	push	{ip}		; (str ip, [sp, #-4]!)
    8374:	e59f000c 	ldr	r0, [pc, #12]	; 8388 <_start+0x34>
    8378:	e59f300c 	ldr	r3, [pc, #12]	; 838c <_start+0x38>
    837c:	ebffffeb 	bl	8330 <__libc_start_main@plt>
    8380:	ebfffff0 	bl	8348 <abort@plt>
    8384:	00008510 	andeq	r8, r0, r0, lsl r5
    8388:	00008400 	andeq	r8, r0, r0, lsl #8
    838c:	000084b0 			; <UNDEFINED> instruction: 0x000084b0

00008390 <call_gmon_start>:
    8390:	e59f3014 	ldr	r3, [pc, #20]	; 83ac <call_gmon_start+0x1c>
    8394:	e59f2014 	ldr	r2, [pc, #20]	; 83b0 <call_gmon_start+0x20>
    8398:	e08f3003 	add	r3, pc, r3
    839c:	e7933002 	ldr	r3, [r3, r2]
    83a0:	e3530000 	cmp	r3, #0
    83a4:	012fff1e 	bxeq	lr
    83a8:	eaffffe3 	b	833c <__gmon_start__@plt>
    83ac:	00008430 	andeq	r8, r0, r0, lsr r4
    83b0:	00000020 	andeq	r0, r0, r0, lsr #32

000083b4 <__do_global_dtors_aux>:
    83b4:	e59f3010 	ldr	r3, [pc, #16]	; 83cc <__do_global_dtors_aux+0x18>
    83b8:	e5d32000 	ldrb	r2, [r3]
    83bc:	e3520000 	cmp	r2, #0
    83c0:	03a02001 	moveq	r2, #1
    83c4:	05c32000 	strbeq	r2, [r3]
    83c8:	e12fff1e 	bx	lr
    83cc:	00010990 	muleq	r1, r0, r9

000083d0 <frame_dummy>:
    83d0:	e59f0020 	ldr	r0, [pc, #32]	; 83f8 <frame_dummy+0x28>
    83d4:	e92d4008 	push	{r3, lr}
    83d8:	e5903000 	ldr	r3, [r0]
    83dc:	e3530000 	cmp	r3, #0
    83e0:	08bd8008 	popeq	{r3, pc}
    83e4:	e59f3010 	ldr	r3, [pc, #16]	; 83fc <frame_dummy+0x2c>
    83e8:	e3530000 	cmp	r3, #0
    83ec:	08bd8008 	popeq	{r3, pc}
    83f0:	e12fff33 	blx	r3
    83f4:	e8bd8008 	pop	{r3, pc}
    83f8:	000106dc 	ldrdeq	r0, [r1], -ip
    83fc:	00000000 	andeq	r0, r0, r0

00008400 <main>:
#include <stdio.h>

int widths_global[] = { [0 ... 9] = 2, [10 ... 99] = 3, [100] = 4 };

int main(int argc, char* argv[])
{
    8400:	e92d4800 	push	{fp, lr}
    8404:	e28db004 	add	fp, sp, #4
    8408:	e24ddf6a 	sub	sp, sp, #424	; 0x1a8
    840c:	e50b01a8 	str	r0, [fp, #-424]	; 0x1a8
    8410:	e50b11ac 	str	r1, [fp, #-428]	; 0x1ac
    int widths[] = { [0 ... 9] = 1, [10 ... 99] = 2, [100] = 3 };
    8414:	e59f3088 	ldr	r3, [pc, #136]	; 84a4 <main+0xa4>
    8418:	e24b1e1a 	sub	r1, fp, #416	; 0x1a0
    841c:	e1a02003 	mov	r2, r3
    8420:	e3a03f65 	mov	r3, #404	; 0x194
    8424:	e1a00001 	mov	r0, r1
    8428:	e1a01002 	mov	r1, r2
    842c:	e1a02003 	mov	r2, r3
    8430:	ebffffbb 	bl	8324 <memcpy@plt>
    int size = sizeof(widths) / sizeof(int);
    8434:	e3a03065 	mov	r3, #101	; 0x65
    8438:	e50b300c 	str	r3, [fp, #-12]
    int i;

    for( i = 0; i < size; i++)
    843c:	e3a03000 	mov	r3, #0
    8440:	e50b3008 	str	r3, [fp, #-8]
    8444:	ea00000e 	b	8484 <main+0x84>
        printf("widths[%d] = %d\n", i, widths[i]);                                      
    8448:	e59f2058 	ldr	r2, [pc, #88]	; 84a8 <main+0xa8>
    844c:	e51b1008 	ldr	r1, [fp, #-8]
    8450:	e59f3054 	ldr	r3, [pc, #84]	; 84ac <main+0xac>
    8454:	e1a01101 	lsl	r1, r1, #2
    8458:	e24b0004 	sub	r0, fp, #4
    845c:	e0801001 	add	r1, r0, r1
    8460:	e0813003 	add	r3, r1, r3
    8464:	e5933000 	ldr	r3, [r3]
    8468:	e1a00002 	mov	r0, r2
    846c:	e51b1008 	ldr	r1, [fp, #-8]
    8470:	e1a02003 	mov	r2, r3
    8474:	ebffffa7 	bl	8318 <printf@plt>
{
    int widths[] = { [0 ... 9] = 1, [10 ... 99] = 2, [100] = 3 };
    int size = sizeof(widths) / sizeof(int);
    int i;

    for( i = 0; i < size; i++)
    8478:	e51b3008 	ldr	r3, [fp, #-8]
    847c:	e2833001 	add	r3, r3, #1
    8480:	e50b3008 	str	r3, [fp, #-8]
    8484:	e51b2008 	ldr	r2, [fp, #-8]
    8488:	e51b300c 	ldr	r3, [fp, #-12]
    848c:	e1520003 	cmp	r2, r3
    8490:	baffffec 	blt	8448 <main+0x48>
        printf("widths[%d] = %d\n", i, widths[i]);                                      
    return 0;
    8494:	e3a03000 	mov	r3, #0
}
    8498:	e1a00003 	mov	r0, r3
    849c:	e24bd004 	sub	sp, fp, #4
    84a0:	e8bd8800 	pop	{fp, pc}
    84a4:	00008534 	andeq	r8, r0, r4, lsr r5
    84a8:	00008520 	andeq	r8, r0, r0, lsr #10
    84ac:	fffffe64 			; <UNDEFINED> instruction: 0xfffffe64

000084b0 <__libc_csu_init>:
    84b0:	e92d45f8 	push	{r3, r4, r5, r6, r7, r8, sl, lr}
    84b4:	e1a06000 	mov	r6, r0
    84b8:	e59f5048 	ldr	r5, [pc, #72]	; 8508 <__libc_csu_init+0x58>
    84bc:	e59fa048 	ldr	sl, [pc, #72]	; 850c <__libc_csu_init+0x5c>
    84c0:	e08f5005 	add	r5, pc, r5
    84c4:	e08fa00a 	add	sl, pc, sl
    84c8:	e065a00a 	rsb	sl, r5, sl
    84cc:	e1a07001 	mov	r7, r1
    84d0:	e1a08002 	mov	r8, r2
    84d4:	ebffff87 	bl	82f8 <_init>
    84d8:	e1b0a14a 	asrs	sl, sl, #2
    84dc:	08bd85f8 	popeq	{r3, r4, r5, r6, r7, r8, sl, pc}
    84e0:	e3a04000 	mov	r4, #0
    84e4:	e4953004 	ldr	r3, [r5], #4
    84e8:	e1a00006 	mov	r0, r6
    84ec:	e1a01007 	mov	r1, r7
    84f0:	e1a02008 	mov	r2, r8
    84f4:	e2844001 	add	r4, r4, #1
    84f8:	e12fff33 	blx	r3
    84fc:	e154000a 	cmp	r4, sl
    8500:	1afffff7 	bne	84e4 <__libc_csu_init+0x34>
    8504:	e8bd85f8 	pop	{r3, r4, r5, r6, r7, r8, sl, pc}
    8508:	0000820c 	andeq	r8, r0, ip, lsl #4
    850c:	0000820c 	andeq	r8, r0, ip, lsl #4

00008510 <__libc_csu_fini>:
    8510:	e12fff1e 	bx	lr

Disassembly of section .fini:

00008514 <_fini>:
    8514:	e92d4008 	push	{r3, lr}
    8518:	e8bd8008 	pop	{r3, pc}
